Certificate:
    Data:
        Version: 3 (0x2)
        Serial Number: 9580267712722688951 (0x84f3f2b9edfadbb7)
    Signature Algorithm: sha1WithRSAEncryption
        Issuer: C=PL, ST=Malopolska, O=ACK Cyfronet AGH, OU=OneData, CN=Global Registry Provider CA
        Validity
            Not Before: May 26 22:06:15 2014 GMT
            Not After : May 23 22:06:15 2024 GMT
        Subject: C=PL, ST=Malopolska, O=ACK Cyfronet AGH, OU=OneData, CN=Global Registry Provider CA
        Subject Public Key Info:
            Public Key Algorithm: rsaEncryption
                Public-Key: (2048 bit)
                Modulus:
                    00:a0:90:0a:73:ae:f6:6c:61:da:1e:bd:0a:3a:48:
                    87:9c:38:93:2b:11:62:8c:94:7f:b5:69:1b:4a:a9:
                    0e:0c:14:09:1e:de:0a:d4:4b:7e:cf:23:08:9a:7c:
                    c3:fb:fd:48:11:8c:e4:96:e0:c4:a7:69:c1:4f:2f:
                    8d:4d:da:c0:38:a8:f7:38:11:78:46:8f:7e:93:26:
                    7e:88:a4:14:e9:7b:95:25:60:09:42:24:d3:b2:50:
                    6d:e8:65:4b:ec:e9:be:85:60:8d:d2:af:b1:73:20:
                    12:55:9f:38:28:80:64:d1:16:a6:2d:3a:7c:41:f4:
                    ab:6d:e1:8a:44:97:da:3e:2a:2f:ba:a4:59:cf:fd:
                    ab:c8:6c:86:23:05:aa:80:97:ff:00:5e:b1:c2:bf:
                    ff:37:f1:5f:31:bb:42:29:f9:62:f6:28:d4:7b:9a:
                    b6:3a:e8:e0:d2:26:f3:8e:42:15:4d:45:73:6c:b0:
                    e0:be:c5:dc:98:93:58:ea:9b:47:bb:33:e1:b0:1c:
                    a6:c4:e4:d0:95:7e:83:23:44:d2:5e:3d:5f:c5:2a:
                    45:23:5e:62:92:21:2b:14:3f:d1:a0:5d:b6:5e:3f:
                    9b:e9:c1:db:71:bb:25:eb:ef:02:6b:ec:dc:00:d4:
                    58:56:69:8e:cd:38:c8:45:1f:e0:0b:1c:12:1c:69:
                    14:bd
                Exponent: 65537 (0x10001)
        X509v3 extensions:
            X509v3 Basic Constraints: 
                CA:FALSE
            Netscape Comment: 
                OpenSSL Generated Certificate
            X509v3 CRL Distribution Points: 

                Full Name:
                  URI:http://student.agh.edu.pl/~zemek/crl.pem

            X509v3 Subject Key Identifier: 
                F4:A0:34:92:72:63:7D:33:06:05:38:26:8D:F1:B0:7B:99:4B:8A:EC
            X509v3 Authority Key Identifier: 
                keyid:F4:A0:34:92:72:63:7D:33:06:05:38:26:8D:F1:B0:7B:99:4B:8A:EC

    Signature Algorithm: sha1WithRSAEncryption
         0e:65:be:fe:e5:0e:2e:5e:17:80:b6:4e:1c:d6:a1:5d:77:11:
         22:6f:77:85:38:d1:59:5a:75:b0:66:b6:8b:7e:b2:bb:89:4e:
         3b:6b:b3:0e:92:95:8b:a1:e6:1b:ae:7f:26:93:74:a9:39:0e:
         11:e8:ed:8f:c4:5a:32:d0:1c:2d:c8:e8:b5:91:08:db:ee:6b:
         1d:ca:49:df:3d:a9:f4:a4:7d:b6:e0:67:1b:af:04:6e:63:a1:
         16:0f:98:b6:11:e2:bc:ba:74:57:b9:ae:dc:cb:30:52:ed:aa:
         ad:84:02:70:6a:e0:94:b2:91:28:f7:f8:dd:23:73:08:fe:4a:
         e4:83:be:cb:9c:26:6a:3d:72:36:34:02:53:99:ce:6b:e5:fd:
         84:4f:76:0d:e0:cd:f4:d0:ea:5c:92:41:0f:a1:e6:a6:90:3e:
         04:54:20:89:41:0a:8f:d1:2b:60:ba:2b:cc:1d:a5:03:ff:8f:
         d8:46:aa:dc:c7:d0:2e:61:44:0c:33:d3:14:01:f5:38:b1:02:
         94:d3:c5:66:41:5e:9b:20:cf:15:ac:c2:26:30:ad:63:32:ce:
         ba:d5:e2:09:e0:68:14:8c:4d:4e:5f:8f:51:ca:8b:1a:67:e3:
         54:c8:d7:af:ce:8d:b9:1c:8b:0c:95:dc:bf:94:3c:35:bf:48:
         00:10:3b:51
-----BEGIN CERTIFICATE-----
MIIEJTCCAw2gAwIBAgIJAITz8rnt+tu3MA0GCSqGSIb3DQEBBQUAMHUxCzAJBgNV
BAYTAlBMMRMwEQYDVQQIDApNYWxvcG9sc2thMRkwFwYDVQQKDBBBQ0sgQ3lmcm9u
ZXQgQUdIMRAwDgYDVQQLDAdPbmVEYXRhMSQwIgYDVQQDDBtHbG9iYWwgUmVnaXN0
cnkgUHJvdmlkZXIgQ0EwHhcNMTQwNTI2MjIwNjE1WhcNMjQwNTIzMjIwNjE1WjB1
MQswCQYDVQQGEwJQTDETMBEGA1UECAwKTWFsb3BvbHNrYTEZMBcGA1UECgwQQUNL
IEN5ZnJvbmV0IEFHSDEQMA4GA1UECwwHT25lRGF0YTEkMCIGA1UEAwwbR2xvYmFs
IFJlZ2lzdHJ5IFByb3ZpZGVyIENBMIIBIjANBgkqhkiG9w0BAQEFAAOCAQ8AMIIB
CgKCAQEAoJAKc672bGHaHr0KOkiHnDiTKxFijJR/tWkbSqkODBQJHt4K1Et+zyMI
mnzD+/1IEYzkluDEp2nBTy+NTdrAOKj3OBF4Ro9+kyZ+iKQU6XuVJWAJQiTTslBt
6GVL7Om+hWCN0q+xcyASVZ84KIBk0RamLTp8QfSrbeGKRJfaPiovuqRZz/2ryGyG
IwWqgJf/AF6xwr//N/FfMbtCKfli9ijUe5q2Oujg0ibzjkIVTUVzbLDgvsXcmJNY
6ptHuzPhsBymxOTQlX6DI0TSXj1fxSpFI15ikiErFD/RoF22Xj+b6cHbcbsl6+8C
a+zcANRYVmmOzTjIRR/gCxwSHGkUvQIDAQABo4G3MIG0MAkGA1UdEwQCMAAwLAYJ
YIZIAYb4QgENBB8WHU9wZW5TU0wgR2VuZXJhdGVkIENlcnRpZmljYXRlMDkGA1Ud
HwQyMDAwLqAsoCqGKGh0dHA6Ly9zdHVkZW50LmFnaC5lZHUucGwvfnplbWVrL2Ny
bC5wZW0wHQYDVR0OBBYEFPSgNJJyY30zBgU4Jo3xsHuZS4rsMB8GA1UdIwQYMBaA
FPSgNJJyY30zBgU4Jo3xsHuZS4rsMA0GCSqGSIb3DQEBBQUAA4IBAQAOZb7+5Q4u
XheAtk4c1qFddxEib3eFONFZWnWwZraLfrK7iU47a7MOkpWLoeYbrn8mk3SpOQ4R
6O2PxFoy0BwtyOi1kQjb7msdyknfPan0pH224GcbrwRuY6EWD5i2EeK8unRXua7c
yzBS7aqthAJwauCUspEo9/jdI3MI/krkg77LnCZqPXI2NAJTmc5r5f2ET3YN4M30
0OpckkEPoeamkD4EVCCJQQqP0StguivMHaUD/4/YRqrcx9AuYUQMM9MUAfU4sQKU
08VmQV6bIM8VrMImMK1jMs661eIJ4GgUjE1OX49RyosaZ+NUyNevzo25HIsMldy/
lDw1v0gAEDtR
-----END CERTIFICATE-----
